; Function Attrs: mustprogress uwtable
define internal fastcc void @_ZN12_GLOBAL__N_110dot_escapeENSt7__cxx1112basic_stringIcSt11char_traitsIcESaIcEEE(ptr dead_on_unwind noalias nonnull writable align 8 %0, ptr noundef %1) unnamed_addr #4 personality ptr @__gxx_personality_v0 {
  tail call void @_ZNSt7__cxx1112basic_stringIcSt11char_traitsIcESaIcEEC1Ev(ptr noundef nonnull align 8 dereferenceable(32) %0) #23
  %3 = tail call ptr @_ZNSt7__cxx1112basic_stringIcSt11char_traitsIcESaIcEE5beginEv(ptr noundef nonnull align 8 dereferenceable(32) %1) #23
  %4 = tail call ptr @_ZNSt7__cxx1112basic_stringIcSt11char_traitsIcESaIcEE3endEv(ptr noundef nonnull align 8 dereferenceable(32) %1) #23
  %.not13 = icmp eq ptr %3, %4
  br i1 %.not13, label %._crit_edge, label %.lr.ph

.lr.ph:                                           ; preds = %2, %14
  %.sroa.010.014 = phi ptr [ %15, %14 ], [ %3, %2 ]
  %5 = load i8, ptr %.sroa.010.014, align 1
  switch i8 %5, label %12 [
    i8 10, label %6
    i8 92, label %10
    i8 34, label %10
  ]

6:                                                ; preds = %.lr.ph
  %7 = invoke noundef nonnull align 8 dereferenceable(32) ptr @_ZNSt7__cxx1112basic_stringIcSt11char_traitsIcESaIcEEpLEPKc(ptr noundef nonnull align 8 dereferenceable(32) %0, ptr noundef nonnull @.str.83)
          to label %14 unwind label %8

8:                                                ; preds = %12, %10, %6
  %9 = landingpad { ptr, i32 }
          cleanup
  tail call void @_ZNSt7__cxx1112basic_stringIcSt11char_traitsIcESaIcEED1Ev(ptr noundef nonnull align 8 dereferenceable(32) %0) #23
  resume { ptr, i32 } %9

10:                                               ; preds = %.lr.ph, %.lr.ph
  %11 = invoke noundef nonnull align 8 dereferenceable(32) ptr @_ZNSt7__cxx1112basic_stringIcSt11char_traitsIcESaIcEEpLEPKc(ptr noundef nonnull align 8 dereferenceable(32) %0, ptr noundef nonnull @.str.84)
          to label %12 unwind label %8

12:                                               ; preds = %.lr.ph, %10
  %13 = invoke noundef nonnull align 8 dereferenceable(32) ptr @_ZNSt7__cxx1112basic_stringIcSt11char_traitsIcESaIcEEpLEc(ptr noundef nonnull align 8 dereferenceable(32) %0, i8 noundef signext %5)
          to label %14 unwind label %8

14:                                               ; preds = %12, %6
  %15 = getelementptr inbounds i8, ptr %.sroa.010.014, i64 1
  %.not = icmp eq ptr %15, %4
  br i1 %.not, label %._crit_edge, label %.lr.ph

._crit_edge:                                      ; preds = %14, %2
  ret void
}